target datalayout = "e-m:e-p270:32:32-p271:32:32-p272:64:64-i64:64-i128:128-f80:128-n8:16:32:64-S128"
target triple = "x86_64-pc-linux-gnu"

%struct.PJconsts = type { ptr, ptr, ptr, ptr, ptr, ptr, ptr, ptr, ptr, ptr, ptr, ptr, i32, ptr, ptr, ptr, ptr, ptr, ptr, ptr, ptr, double, double, double, double, double, double, double, double, double, double, double, double, double, double, double, double, double, double, double, double, double, double, i32, i32, i32, i32, i32, i32, i32, i32, i32, i32, i32, ptr, ptr, ptr, ptr, ptr, ptr, double, double, double, double, double, double, double, double, double, double, double, i32, [7 x double], i32, ptr, ptr, double, double, i32, [4 x i8], %"class.std::shared_ptr", i8, double, i8, %"class.std::__cxx11::basic_string", %"class.std::__cxx11::basic_string", %"class.std::__cxx11::basic_string", i8, %"class.std::vector", i32, %"class.std::vector.3", i32, i8, i8, i8, ptr }
%"class.std::shared_ptr" = type { %"class.std::__shared_ptr" }
%"class.std::__shared_ptr" = type { ptr, %"class.std::__shared_count" }
%"class.std::__shared_count" = type { ptr }
%"class.std::__cxx11::basic_string" = type { %"struct.std::__cxx11::basic_string<char>::_Alloc_hider", i64, %union.anon }
%"struct.std::__cxx11::basic_string<char>::_Alloc_hider" = type { ptr }
%union.anon = type { i64, [8 x i8] }
%"class.std::vector" = type { %"struct.std::_Vector_base" }
%"struct.std::_Vector_base" = type { %"struct.std::_Vector_base<osgeo::proj::operation::GridDescription, std::allocator<osgeo::proj::operation::GridDescription>>::_Vector_impl" }
%"struct.std::_Vector_base<osgeo::proj::operation::GridDescription, std::allocator<osgeo::proj::operation::GridDescription>>::_Vector_impl" = type { %"struct.std::_Vector_base<osgeo::proj::operation::GridDescription, std::allocator<osgeo::proj::operation::GridDescription>>::_Vector_impl_data" }
%"struct.std::_Vector_base<osgeo::proj::operation::GridDescription, std::allocator<osgeo::proj::operation::GridDescription>>::_Vector_impl_data" = type { ptr, ptr, ptr }
%"class.std::vector.3" = type { %"struct.std::_Vector_base.4" }
%"struct.std::_Vector_base.4" = type { %"struct.std::_Vector_base<PJCoordOperation, std::allocator<PJCoordOperation>>::_Vector_impl" }
%"struct.std::_Vector_base<PJCoordOperation, std::allocator<PJCoordOperation>>::_Vector_impl" = type { %"struct.std::_Vector_base<PJCoordOperation, std::allocator<PJCoordOperation>>::_Vector_impl_data" }
%"struct.std::_Vector_base<PJCoordOperation, std::allocator<PJCoordOperation>>::_Vector_impl_data" = type { ptr, ptr, ptr }
%"struct.pj_imoll_ns::pj_imoll_data" = type { [6 x ptr], double, double, double, double }
%struct.PJ_LP = type { double, double }
%struct.PJ_XY = type { double, double }

; Function Attrs: mustprogress uwtable
define internal { double, double } @_ZL15imoll_s_forward5PJ_LPP8PJconsts(double %0, double %1, ptr noundef %2) #0 {
  %4 = alloca %struct.PJ_XY, align 8
  %5 = alloca %struct.PJ_LP, align 8
  %6 = alloca ptr, align 8
  %7 = alloca ptr, align 8
  %8 = alloca i32, align 4
  %9 = alloca %struct.PJ_XY, align 8
  %10 = alloca %struct.PJ_LP, align 8
  %11 = getelementptr inbounds nuw { double, double }, ptr %5, i32 0, i32 0
  store double %0, ptr %11, align 8
  %12 = getelementptr inbounds nuw { double, double }, ptr %5, i32 0, i32 1
  store double %1, ptr %12, align 8
  store ptr %2, ptr %6, align 8, !tbaa !3
  call void @llvm.lifetime.start.p0(i64 8, ptr %7) #7
  %13 = load ptr, ptr %6, align 8, !tbaa !3
  %14 = getelementptr inbounds nuw %struct.PJconsts, ptr %13, i32 0, i32 11
  %15 = load ptr, ptr %14, align 8, !tbaa !43
  store ptr %15, ptr %7, align 8, !tbaa !41
  call void @llvm.lifetime.start.p0(i64 4, ptr %8) #7
  %16 = getelementptr inbounds nuw %struct.PJ_LP, ptr %5, i32 0, i32 1
  %17 = load double, ptr %16, align 8, !tbaa !64
  %18 = fcmp oge double %17, 0.000000e+00
  br i1 %18, label %19, label %24

19:                                               ; preds = %3
  %20 = getelementptr inbounds nuw %struct.PJ_LP, ptr %5, i32 0, i32 0
  %21 = load double, ptr %20, align 8, !tbaa !62
  %22 = fcmp ole double %21, 0xBFE657184AE74487
  %23 = select i1 %22, i32 1, i32 2
  store i32 %23, ptr %8, align 4, !tbaa !54
  br label %43

24:                                               ; preds = %3
  %25 = getelementptr inbounds nuw %struct.PJ_LP, ptr %5, i32 0, i32 0
  %26 = load double, ptr %25, align 8, !tbaa !62
  %27 = fcmp ole double %26, 0xBFFBECDE5DA115A9
  br i1 %27, label %28, label %29

28:                                               ; preds = %24
  store i32 3, ptr %8, align 4, !tbaa !54
  br label %42

29:                                               ; preds = %24
  %30 = getelementptr inbounds nuw %struct.PJ_LP, ptr %5, i32 0, i32 0
  %31 = load double, ptr %30, align 8, !tbaa !62
  %32 = fcmp ole double %31, 0xBFD657184AE74487
  br i1 %32, label %33, label %34

33:                                               ; preds = %29
  store i32 4, ptr %8, align 4, !tbaa !54
  br label %41

34:                                               ; preds = %29
  %35 = getelementptr inbounds nuw %struct.PJ_LP, ptr %5, i32 0, i32 0
  %36 = load double, ptr %35, align 8, !tbaa !62
  %37 = fcmp ole double %36, 0x3FF657184AE74487
  br i1 %37, label %38, label %39

38:                                               ; preds = %34
  store i32 5, ptr %8, align 4, !tbaa !54
  br label %40

39:                                               ; preds = %34
  store i32 6, ptr %8, align 4, !tbaa !54
  br label %40

40:                                               ; preds = %39, %38
  br label %41

41:                                               ; preds = %40, %33
  br label %42

42:                                               ; preds = %41, %28
  br label %43

43:                                               ; preds = %42, %19
  %44 = load ptr, ptr %7, align 8, !tbaa !41
  %45 = getelementptr inbounds nuw %"struct.pj_imoll_ns::pj_imoll_data", ptr %44, i32 0, i32 0
  %46 = load i32, ptr %8, align 4, !tbaa !54
  %47 = sub nsw i32 %46, 1
  %48 = sext i32 %47 to i64
  %49 = getelementptr inbounds [6 x ptr], ptr %45, i64 0, i64 %48
  %50 = load ptr, ptr %49, align 8, !tbaa !3
  %51 = getelementptr inbounds nuw %struct.PJconsts, ptr %50, i32 0, i32 60
  %52 = load double, ptr %51, align 8, !tbaa !59
  %53 = getelementptr inbounds nuw %struct.PJ_LP, ptr %5, i32 0, i32 0
  %54 = load double, ptr %53, align 8, !tbaa !62
  %55 = fsub double %54, %52
  store double %55, ptr %53, align 8, !tbaa !62
  call void @llvm.lifetime.start.p0(i64 16, ptr %9) #7
  %56 = load ptr, ptr %7, align 8, !tbaa !41
  %57 = getelementptr inbounds nuw %"struct.pj_imoll_ns::pj_imoll_data", ptr %56, i32 0, i32 0
  %58 = load i32, ptr %8, align 4, !tbaa !54
  %59 = sub nsw i32 %58, 1
  %60 = sext i32 %59 to i64
  %61 = getelementptr inbounds [6 x ptr], ptr %57, i64 0, i64 %60
  %62 = load ptr, ptr %61, align 8, !tbaa !3
  %63 = getelementptr inbounds nuw %struct.PJconsts, ptr %62, i32 0, i32 13
  %64 = load ptr, ptr %63, align 8, !tbaa !51
  call void @llvm.memcpy.p0.p0.i64(ptr align 8 %10, ptr align 8 %5, i64 16, i1 false), !tbaa.struct !65
  %65 = load ptr, ptr %7, align 8, !tbaa !41
  %66 = getelementptr inbounds nuw %"struct.pj_imoll_ns::pj_imoll_data", ptr %65, i32 0, i32 0
  %67 = load i32, ptr %8, align 4, !tbaa !54
  %68 = sub nsw i32 %67, 1
  %69 = sext i32 %68 to i64
  %70 = getelementptr inbounds [6 x ptr], ptr %66, i64 0, i64 %69
  %71 = load ptr, ptr %70, align 8, !tbaa !3
  %72 = getelementptr inbounds nuw { double, double }, ptr %10, i32 0, i32 0
  %73 = load double, ptr %72, align 8
  %74 = getelementptr inbounds nuw { double, double }, ptr %10, i32 0, i32 1
  %75 = load double, ptr %74, align 8
  %76 = call { double, double } %64(double %73, double %75, ptr noundef %71)
  %77 = getelementptr inbounds nuw { double, double }, ptr %9, i32 0, i32 0
  %78 = extractvalue { double, double } %76, 0
  store double %78, ptr %77, align 8
  %79 = getelementptr inbounds nuw { double, double }, ptr %9, i32 0, i32 1
  %80 = extractvalue { double, double } %76, 1
  store double %80, ptr %79, align 8
  call void @llvm.memcpy.p0.p0.i64(ptr align 8 %4, ptr align 8 %9, i64 16, i1 false), !tbaa.struct !65
  call void @llvm.lifetime.end.p0(i64 16, ptr %9) #7
  %81 = load ptr, ptr %7, align 8, !tbaa !41
  %82 = getelementptr inbounds nuw %"struct.pj_imoll_ns::pj_imoll_data", ptr %81, i32 0, i32 0
  %83 = load i32, ptr %8, align 4, !tbaa !54
  %84 = sub nsw i32 %83, 1
  %85 = sext i32 %84 to i64
  %86 = getelementptr inbounds [6 x ptr], ptr %82, i64 0, i64 %85
  %87 = load ptr, ptr %86, align 8, !tbaa !3
  %88 = getelementptr inbounds nuw %struct.PJconsts, ptr %87, i32 0, i32 62
  %89 = load double, ptr %88, align 8, !tbaa !44
  %90 = getelementptr inbounds nuw %struct.PJ_XY, ptr %4, i32 0, i32 0
  %91 = load double, ptr %90, align 8, !tbaa !66
  %92 = fadd double %91, %89
  store double %92, ptr %90, align 8, !tbaa !66
  %93 = load ptr, ptr %7, align 8, !tbaa !41
  %94 = getelementptr inbounds nuw %"struct.pj_imoll_ns::pj_imoll_data", ptr %93, i32 0, i32 0
  %95 = load i32, ptr %8, align 4, !tbaa !54
  %96 = sub nsw i32 %95, 1
  %97 = sext i32 %96 to i64
  %98 = getelementptr inbounds [6 x ptr], ptr %94, i64 0, i64 %97
  %99 = load ptr, ptr %98, align 8, !tbaa !3
  %100 = getelementptr inbounds nuw %struct.PJconsts, ptr %99, i32 0, i32 63
  %101 = load double, ptr %100, align 8, !tbaa !58
  %102 = getelementptr inbounds nuw %struct.PJ_XY, ptr %4, i32 0, i32 1
  %103 = load double, ptr %102, align 8, !tbaa !68
  %104 = fadd double %103, %101
  store double %104, ptr %102, align 8, !tbaa !68
  call void @llvm.lifetime.end.p0(i64 4, ptr %8) #7
  call void @llvm.lifetime.end.p0(i64 8, ptr %7) #7
  %105 = load { double, double }, ptr %4, align 8
  ret { double, double } %105
}

; Function Attrs: mustprogress uwtable
define internal noundef double @_ZL23compute_zone_x_boundaryP8PJconstsdd(ptr noundef %0, double noundef %1, double noundef %2) #0 {
  %4 = alloca ptr, align 8
  %5 = alloca double, align 8
  %6 = alloca double, align 8
  %7 = alloca %struct.PJ_LP, align 8
  %8 = alloca %struct.PJ_LP, align 8
  %9 = alloca %struct.PJ_XY, align 8
  %10 = alloca %struct.PJ_XY, align 8
  %11 = alloca %struct.PJ_XY, align 8
  %12 = alloca %struct.PJ_LP, align 8
  %13 = alloca %struct.PJ_XY, align 8
  %14 = alloca %struct.PJ_LP, align 8
  store ptr %0, ptr %4, align 8, !tbaa !3
  store double %1, ptr %5, align 8, !tbaa !56
  store double %2, ptr %6, align 8, !tbaa !56
  call void @llvm.lifetime.start.p0(i64 16, ptr %7) #7
  call void @llvm.lifetime.start.p0(i64 16, ptr %8) #7
  call void @llvm.lifetime.start.p0(i64 16, ptr %9) #7
  call void @llvm.lifetime.start.p0(i64 16, ptr %10) #7
  %15 = load double, ptr %5, align 8, !tbaa !56
  %16 = fsub double %15, 1.000000e-10
  %17 = getelementptr inbounds nuw %struct.PJ_LP, ptr %7, i32 0, i32 0
  store double %16, ptr %17, align 8, !tbaa !62
  %18 = load double, ptr %6, align 8, !tbaa !56
  %19 = getelementptr inbounds nuw %struct.PJ_LP, ptr %7, i32 0, i32 1
  store double %18, ptr %19, align 8, !tbaa !64
  %20 = load double, ptr %5, align 8, !tbaa !56
  %21 = fadd double %20, 1.000000e-10
  %22 = getelementptr inbounds nuw %struct.PJ_LP, ptr %8, i32 0, i32 0
  store double %21, ptr %22, align 8, !tbaa !62
  %23 = load double, ptr %6, align 8, !tbaa !56
  %24 = getelementptr inbounds nuw %struct.PJ_LP, ptr %8, i32 0, i32 1
  store double %23, ptr %24, align 8, !tbaa !64
  call void @llvm.lifetime.start.p0(i64 16, ptr %11) #7
  call void @llvm.memcpy.p0.p0.i64(ptr align 8 %12, ptr align 8 %7, i64 16, i1 false), !tbaa.struct !65
  %25 = load ptr, ptr %4, align 8, !tbaa !3
  %26 = getelementptr inbounds nuw { double, double }, ptr %12, i32 0, i32 0
  %27 = load double, ptr %26, align 8
  %28 = getelementptr inbounds nuw { double, double }, ptr %12, i32 0, i32 1
  %29 = load double, ptr %28, align 8
  %30 = call { double, double } @_ZL15imoll_s_forward5PJ_LPP8PJconsts(double %27, double %29, ptr noundef %25)
  %31 = getelementptr inbounds nuw { double, double }, ptr %11, i32 0, i32 0
  %32 = extractvalue { double, double } %30, 0
  store double %32, ptr %31, align 8
  %33 = getelementptr inbounds nuw { double, double }, ptr %11, i32 0, i32 1
  %34 = extractvalue { double, double } %30, 1
  store double %34, ptr %33, align 8
  call void @llvm.memcpy.p0.p0.i64(ptr align 8 %9, ptr align 8 %11, i64 16, i1 false), !tbaa.struct !65
  call void @llvm.lifetime.end.p0(i64 16, ptr %11) #7
  call void @llvm.lifetime.start.p0(i64 16, ptr %13) #7
  call void @llvm.memcpy.p0.p0.i64(ptr align 8 %14, ptr align 8 %8, i64 16, i1 false), !tbaa.struct !65
  %35 = load ptr, ptr %4, align 8, !tbaa !3
  %36 = getelementptr inbounds nuw { double, double }, ptr %14, i32 0, i32 0
  %37 = load double, ptr %36, align 8
  %38 = getelementptr inbounds nuw { double, double }, ptr %14, i32 0, i32 1
  %39 = load double, ptr %38, align 8
  %40 = call { double, double } @_ZL15imoll_s_forward5PJ_LPP8PJconsts(double %37, double %39, ptr noundef %35)
  %41 = getelementptr inbounds nuw { double, double }, ptr %13, i32 0, i32 0
  %42 = extractvalue { double, double } %40, 0
  store double %42, ptr %41, align 8
  %43 = getelementptr inbounds nuw { double, double }, ptr %13, i32 0, i32 1
  %44 = extractvalue { double, double } %40, 1
  store double %44, ptr %43, align 8
  call void @llvm.memcpy.p0.p0.i64(ptr align 8 %10, ptr align 8 %13, i64 16, i1 false), !tbaa.struct !65
  call void @llvm.lifetime.end.p0(i64 16, ptr %13) #7
  %45 = getelementptr inbounds nuw %struct.PJ_XY, ptr %9, i32 0, i32 0
  %46 = load double, ptr %45, align 8, !tbaa !66
  %47 = getelementptr inbounds nuw %struct.PJ_XY, ptr %10, i32 0, i32 0
  %48 = load double, ptr %47, align 8, !tbaa !66
  %49 = fadd double %46, %48
  %50 = fdiv double %49, 2.000000e+00
  call void @llvm.lifetime.end.p0(i64 16, ptr %10) #7
  call void @llvm.lifetime.end.p0(i64 16, ptr %9) #7
  call void @llvm.lifetime.end.p0(i64 16, ptr %8) #7
  call void @llvm.lifetime.end.p0(i64 16, ptr %7) #7
  ret double %50
}