; Function Attrs: mustprogress uwtable
define internal fastcc noundef double @_ZL23compute_zone_x_boundaryP8PJconstsdd(ptr noundef readonly captures(none) %0, double noundef %1, double noundef %2) unnamed_addr #0 {
  %4 = fadd double %1, -1.000000e-10
  %5 = fadd double %1, 1.000000e-10
  %6 = getelementptr inbounds nuw i8, ptr %0, i64 88
  %7 = load ptr, ptr %6, align 8, !tbaa !40
  %8 = fcmp ult double %2, 0.000000e+00
  br i1 %8, label %12, label %9

9:                                                ; preds = %3
  %10 = fcmp ugt double %4, 0xBFE657184AE74487
  %11 = zext i1 %10 to i64
  br label %_ZL15imoll_s_forward5PJ_LPP8PJconsts.exit

12:                                               ; preds = %3
  %13 = fcmp ugt double %4, 0xBFFBECDE5DA115A9
  br i1 %13, label %14, label %_ZL15imoll_s_forward5PJ_LPP8PJconsts.exit

14:                                               ; preds = %12
  %15 = fcmp ugt double %4, 0xBFD657184AE74487
  br i1 %15, label %16, label %_ZL15imoll_s_forward5PJ_LPP8PJconsts.exit

16:                                               ; preds = %14
  %17 = fcmp ugt double %4, 0x3FF657184AE74487
  %..i = select i1 %17, i64 5, i64 4
  br label %_ZL15imoll_s_forward5PJ_LPP8PJconsts.exit

_ZL15imoll_s_forward5PJ_LPP8PJconsts.exit:        ; preds = %9, %12, %14, %16
  %.0.i = phi i64 [ %11, %9 ], [ 2, %12 ], [ 3, %14 ], [ %..i, %16 ]
  %18 = getelementptr inbounds nuw [6 x ptr], ptr %7, i64 0, i64 %.0.i
  %19 = load ptr, ptr %18, align 8, !tbaa !41
  %20 = getelementptr inbounds nuw i8, ptr %19, i64 440
  %21 = load double, ptr %20, align 8, !tbaa !45
  %22 = fsub double %4, %21
  %23 = getelementptr inbounds nuw i8, ptr %19, i64 104
  %24 = load ptr, ptr %23, align 8, !tbaa !55
  %25 = tail call { double, double } %24(double %22, double %2, ptr noundef %19)
  %26 = load ptr, ptr %18, align 8, !tbaa !41
  %27 = getelementptr inbounds nuw i8, ptr %26, i64 456
  %28 = load double, ptr %27, align 8, !tbaa !43
  %29 = load ptr, ptr %6, align 8, !tbaa !40
  br i1 %8, label %33, label %30

30:                                               ; preds = %_ZL15imoll_s_forward5PJ_LPP8PJconsts.exit
  %31 = fcmp ugt double %5, 0xBFE657184AE74487
  %32 = zext i1 %31 to i64
  br label %_ZL15imoll_s_forward5PJ_LPP8PJconsts.exit23

33:                                               ; preds = %_ZL15imoll_s_forward5PJ_LPP8PJconsts.exit
  %34 = fcmp ugt double %5, 0xBFFBECDE5DA115A9
  br i1 %34, label %35, label %_ZL15imoll_s_forward5PJ_LPP8PJconsts.exit23

35:                                               ; preds = %33
  %36 = fcmp ugt double %5, 0xBFD657184AE74487
  br i1 %36, label %37, label %_ZL15imoll_s_forward5PJ_LPP8PJconsts.exit23

37:                                               ; preds = %35
  %38 = fcmp ugt double %5, 0x3FF657184AE74487
  %..i22 = select i1 %38, i64 5, i64 4
  br label %_ZL15imoll_s_forward5PJ_LPP8PJconsts.exit23

_ZL15imoll_s_forward5PJ_LPP8PJconsts.exit23:      ; preds = %30, %33, %35, %37
  %.0.i19 = phi i64 [ %32, %30 ], [ 2, %33 ], [ 3, %35 ], [ %..i22, %37 ]
  %39 = extractvalue { double, double } %25, 0
  %40 = fadd double %39, %28
  %41 = getelementptr inbounds nuw [6 x ptr], ptr %29, i64 0, i64 %.0.i19
  %42 = load ptr, ptr %41, align 8, !tbaa !41
  %43 = getelementptr inbounds nuw i8, ptr %42, i64 440
  %44 = load double, ptr %43, align 8, !tbaa !45
  %45 = fsub double %5, %44
  %46 = getelementptr inbounds nuw i8, ptr %42, i64 104
  %47 = load ptr, ptr %46, align 8, !tbaa !55
  %48 = tail call { double, double } %47(double %45, double %2, ptr noundef %42)
  %49 = extractvalue { double, double } %48, 0
  %50 = load ptr, ptr %41, align 8, !tbaa !41
  %51 = getelementptr inbounds nuw i8, ptr %50, i64 456
  %52 = load double, ptr %51, align 8, !tbaa !43
  %53 = fadd double %49, %52
  %54 = fadd double %40, %53
  %55 = fmul double %54, 5.000000e-01
  ret double %55
}